target datalayout = "e-m:e-p270:32:32-p271:32:32-p272:64:64-i64:64-i128:128-f80:128-n8:16:32:64-S128"
target triple = "x86_64-pc-linux-gnu"

%struct.darktable_t = type { %struct.dt_codepath_t, i32, i32, ptr, ptr, ptr, ptr, ptr, ptr, ptr, ptr, ptr, ptr, ptr, ptr, ptr, ptr, ptr, ptr, ptr, ptr, ptr, ptr, ptr, ptr, ptr, ptr, ptr, ptr, ptr, [64 x %struct.dt_pthread_mutex_t], %struct.dt_pthread_mutex_t, %struct.dt_pthread_mutex_t, %struct.dt_pthread_mutex_t, %struct.dt_pthread_mutex_t, %struct.dt_pthread_mutex_t, ptr, ptr, ptr, ptr, ptr, ptr, ptr, ptr, ptr, ptr, ptr, ptr, ptr, %struct.dt_lua_state_t, ptr, double, ptr, i32, [47 x i32], i32, i32, ptr, ptr, %struct.dt_sys_resources_t, %struct.dt_backthumb_t, %struct.dt_gimp_t }
%struct.dt_codepath_t = type { i8, [3 x i8] }
%struct.dt_pthread_mutex_t = type { %union.pthread_mutex_t }
%union.pthread_mutex_t = type { %struct.__pthread_mutex_s }
%struct.__pthread_mutex_s = type { i32, i32, i32, i32, i32, i16, i16, %struct.__pthread_internal_list }
%struct.__pthread_internal_list = type { ptr, ptr }
%struct.dt_lua_state_t = type { i32 }
%struct.dt_sys_resources_t = type { i64, i64, ptr, ptr, i32 }
%struct.dt_backthumb_t = type { double, double, i32, i32, i32, i32 }
%struct.dt_gimp_t = type { i32, ptr, ptr, i32, i32 }
%struct.dt_action_t = type { i32, ptr, ptr, ptr, ptr, ptr }
%struct.dt_control_t = type { i32, ptr, %struct.dt_action_t, %struct.dt_action_t, %struct.dt_action_t, %struct.dt_action_t, %struct.dt_action_t, %struct.dt_action_t, %struct.dt_action_t, %struct.dt_action_t, %struct.dt_action_t, %struct.dt_action_t, %struct.dt_action_t, ptr, ptr, ptr, i32, ptr, i32, i32, ptr, ptr, [256 x i8], i32, double, i32, i32, i64, i32, i32, i32, double, double, i32, i32, i32, i32, i32, i32, [8 x [1000 x i8]], i32, i32, %struct.dt_pthread_mutex_t, i32, i32, [2 x [300 x i8]], i32, i32, %struct.dt_pthread_mutex_t, %struct.dt_pthread_mutex_t, %struct.dt_pthread_mutex_t, double, i32, i32, i32, %struct.dt_pthread_mutex_t, %struct.dt_pthread_mutex_t, %union.pthread_cond_t, i32, ptr, i64, i64, ptr, [5 x ptr], [5 x i64], %struct.dt_pthread_mutex_t, [3 x ptr], [3 x i8], [3 x i64], %struct.anon.0, %struct.anon.2 }
%union.pthread_cond_t = type { %struct.__pthread_cond_s }
%struct.__pthread_cond_s = type { %union.__atomic_wide_counter, %union.__atomic_wide_counter, [2 x i32], [2 x i32], i32, i32, [2 x i32] }
%union.__atomic_wide_counter = type { i64 }
%struct.anon.0 = type { ptr, i64, i64, double, %struct.dt_pthread_mutex_t, %struct.anon.1 }
%struct.anon.1 = type { ptr, ptr, ptr, ptr, ptr, ptr }
%struct.anon.2 = type { %struct.anon.3 }
%struct.anon.3 = type { ptr, ptr }

@darktable = external global %struct.darktable_t, align 8

; Function Attrs: inlinehint nounwind uwtable
define internal i32 @dt_pthread_mutex_unlock(ptr noundef %0) #4 {
  %2 = alloca ptr, align 8
  store ptr %0, ptr %2, align 8, !tbaa !118
  %3 = load ptr, ptr %2, align 8, !tbaa !118
  %4 = getelementptr inbounds nuw %struct.dt_pthread_mutex_t, ptr %3, i32 0, i32 0
  %5 = call i32 @pthread_mutex_unlock(ptr noundef %4) #10
  ret i32 %5
}

; Function Attrs: inlinehint nounwind uwtable
define internal i32 @dt_pthread_mutex_lock(ptr noundef %0) #4 {
  %2 = alloca ptr, align 8
  store ptr %0, ptr %2, align 8, !tbaa !118
  %3 = load ptr, ptr %2, align 8, !tbaa !118
  %4 = getelementptr inbounds nuw %struct.dt_pthread_mutex_t, ptr %3, i32 0, i32 0
  %5 = call i32 @pthread_mutex_lock(ptr noundef %4) #10
  ret i32 %5
}

; Function Attrs: nounwind uwtable
define internal void @_toast_log(i32 noundef %0, ptr noundef %1, ptr noundef %2) #0 {
  %4 = alloca i32, align 4
  %5 = alloca ptr, align 8
  %6 = alloca ptr, align 8
  %7 = alloca ptr, align 8
  %8 = alloca ptr, align 8
  store i32 %0, ptr %4, align 4, !tbaa !10
  store ptr %1, ptr %5, align 8, !tbaa !83
  store ptr %2, ptr %6, align 8, !tbaa !173
  call void @llvm.lifetime.start.p0(i64 8, ptr %7) #10
  %9 = load ptr, ptr getelementptr inbounds nuw (%struct.darktable_t, ptr @darktable, i32 0, i32 12), align 8, !tbaa !120
  store ptr %9, ptr %7, align 8, !tbaa !73
  %10 = load ptr, ptr %7, align 8, !tbaa !73
  %11 = getelementptr inbounds nuw %struct.dt_control_t, ptr %10, i32 0, i32 48
  %12 = call i32 @dt_pthread_mutex_lock(ptr noundef %11)
  %13 = load i32, ptr %4, align 4, !tbaa !10
  %14 = icmp ne i32 %13, 0
  br i1 %14, label %15, label %28

15:                                               ; preds = %3
  %16 = load ptr, ptr %7, align 8, !tbaa !73
  %17 = getelementptr inbounds nuw %struct.dt_control_t, ptr %16, i32 0, i32 45
  %18 = load ptr, ptr %7, align 8, !tbaa !73
  %19 = getelementptr inbounds nuw %struct.dt_control_t, ptr %18, i32 0, i32 43
  %20 = load i32, ptr %19, align 8, !tbaa !111
  %21 = and i32 %20, 1
  %22 = sext i32 %21 to i64
  %23 = getelementptr inbounds [2 x [300 x i8]], ptr %17, i64 0, i64 %22
  %24 = getelementptr inbounds [300 x i8], ptr %23, i64 0, i64 0
  %25 = load ptr, ptr %5, align 8, !tbaa !83
  %26 = load ptr, ptr %6, align 8, !tbaa !173
  %27 = call i32 @vsnprintf(ptr noundef %24, i64 noundef 300, ptr noundef %25, ptr noundef %26) #10
  br label %44

28:                                               ; preds = %3
  call void @llvm.lifetime.start.p0(i64 8, ptr %8) #10
  %29 = load ptr, ptr %5, align 8, !tbaa !83
  %30 = load ptr, ptr %6, align 8, !tbaa !173
  %31 = call ptr @g_markup_vprintf_escaped(ptr noundef %29, ptr noundef %30)
  store ptr %31, ptr %8, align 8, !tbaa !83
  %32 = load ptr, ptr %7, align 8, !tbaa !73
  %33 = getelementptr inbounds nuw %struct.dt_control_t, ptr %32, i32 0, i32 45
  %34 = load ptr, ptr %7, align 8, !tbaa !73
  %35 = getelementptr inbounds nuw %struct.dt_control_t, ptr %34, i32 0, i32 43
  %36 = load i32, ptr %35, align 8, !tbaa !111
  %37 = and i32 %36, 1
  %38 = sext i32 %37 to i64
  %39 = getelementptr inbounds [2 x [300 x i8]], ptr %33, i64 0, i64 %38
  %40 = getelementptr inbounds [300 x i8], ptr %39, i64 0, i64 0
  %41 = load ptr, ptr %8, align 8, !tbaa !83
  %42 = call i64 @g_strlcpy(ptr noundef %40, ptr noundef %41, i64 noundef 300)
  %43 = load ptr, ptr %8, align 8, !tbaa !83
  call void @g_free(ptr noundef %43)
  call void @llvm.lifetime.end.p0(i64 8, ptr %8) #10
  br label %44

44:                                               ; preds = %28, %15
  %45 = load ptr, ptr %7, align 8, !tbaa !73
  %46 = getelementptr inbounds nuw %struct.dt_control_t, ptr %45, i32 0, i32 43
  %47 = load i32, ptr %46, align 8, !tbaa !111
  %48 = add nsw i32 %47, 1
  store i32 %48, ptr %46, align 8, !tbaa !111
  %49 = load ptr, ptr %7, align 8, !tbaa !73
  %50 = getelementptr inbounds nuw %struct.dt_control_t, ptr %49, i32 0, i32 46
  %51 = load i32, ptr %50, align 8, !tbaa !113
  %52 = icmp ne i32 %51, 0
  br i1 %52, label %53, label %58

53:                                               ; preds = %44
  %54 = load ptr, ptr %7, align 8, !tbaa !73
  %55 = getelementptr inbounds nuw %struct.dt_control_t, ptr %54, i32 0, i32 46
  %56 = load i32, ptr %55, align 8, !tbaa !113
  %57 = call i32 @g_source_remove(i32 noundef %56)
  br label %58

58:                                               ; preds = %53, %44
  %59 = call i32 @g_timeout_add(i32 noundef 1500, ptr noundef @_dt_ctl_toast_message_timeout_callback, ptr noundef null)
  %60 = load ptr, ptr %7, align 8, !tbaa !73
  %61 = getelementptr inbounds nuw %struct.dt_control_t, ptr %60, i32 0, i32 46
  store i32 %59, ptr %61, align 8, !tbaa !113
  %62 = load ptr, ptr %7, align 8, !tbaa !73
  %63 = getelementptr inbounds nuw %struct.dt_control_t, ptr %62, i32 0, i32 48
  %64 = call i32 @dt_pthread_mutex_unlock(ptr noundef %63)
  %65 = call i32 @g_idle_add(ptr noundef @_redraw_center, ptr noundef null)
  call void @llvm.lifetime.end.p0(i64 8, ptr %7) #10
  ret void
}