; Function Attrs: nounwind uwtable
define internal fastcc void @_toast_log(i32 noundef range(i32 0, 2) %0, ptr noundef %1, ptr noundef nonnull %2) unnamed_addr #0 {
  %4 = load ptr, ptr getelementptr inbounds nuw (i8, ptr @darktable, i64 88), align 8, !tbaa !107
  %5 = getelementptr inbounds nuw i8, ptr %4, i64 9616
  %6 = tail call i32 @pthread_mutex_lock(ptr noundef nonnull %5) #13
  %.not = icmp eq i32 %0, 0
  br i1 %.not, label %15, label %7

7:                                                ; preds = %3
  %8 = getelementptr inbounds nuw i8, ptr %4, i64 9008
  %9 = getelementptr inbounds nuw i8, ptr %4, i64 9000
  %10 = load i32, ptr %9, align 8, !tbaa !100
  %11 = and i32 %10, 1
  %12 = zext nneg i32 %11 to i64
  %13 = getelementptr inbounds nuw [2 x [300 x i8]], ptr %8, i64 0, i64 %12
  %14 = tail call i32 @vsnprintf(ptr noundef nonnull %13, i64 noundef 300, ptr noundef %1, ptr noundef nonnull %2) #13
  br label %24

15:                                               ; preds = %3
  %16 = tail call ptr @g_markup_vprintf_escaped(ptr noundef %1, ptr noundef nonnull %2) #13
  %17 = getelementptr inbounds nuw i8, ptr %4, i64 9008
  %18 = getelementptr inbounds nuw i8, ptr %4, i64 9000
  %19 = load i32, ptr %18, align 8, !tbaa !100
  %20 = and i32 %19, 1
  %21 = zext nneg i32 %20 to i64
  %22 = getelementptr inbounds nuw [2 x [300 x i8]], ptr %17, i64 0, i64 %21
  %23 = tail call i64 @g_strlcpy(ptr noundef nonnull %22, ptr noundef %16, i64 noundef 300) #13
  tail call void @g_free(ptr noundef %16) #13
  br label %24

24:                                               ; preds = %15, %7
  %25 = getelementptr inbounds nuw i8, ptr %4, i64 9000
  %26 = load i32, ptr %25, align 8, !tbaa !100
  %27 = add nsw i32 %26, 1
  store i32 %27, ptr %25, align 8, !tbaa !100
  %28 = getelementptr inbounds nuw i8, ptr %4, i64 9608
  %29 = load i32, ptr %28, align 8, !tbaa !102
  %.not16 = icmp eq i32 %29, 0
  br i1 %.not16, label %32, label %30

30:                                               ; preds = %24
  %31 = tail call i32 @g_source_remove(i32 noundef %29) #13
  br label %32

32:                                               ; preds = %30, %24
  %33 = tail call i32 @g_timeout_add(i32 noundef 1500, ptr noundef nonnull @_dt_ctl_toast_message_timeout_callback, ptr noundef null) #13
  store i32 %33, ptr %28, align 8, !tbaa !102
  %34 = tail call i32 @pthread_mutex_unlock(ptr noundef nonnull %5) #13
  %35 = tail call i32 @g_idle_add(ptr noundef nonnull @_redraw_center, ptr noundef null) #13
  ret void
}